target datalayout = "e-m:e-p270:32:32-p271:32:32-p272:64:64-i64:64-i128:128-f80:128-n8:16:32:64-S128"
target triple = "x86_64-pc-linux-gnu"

%"class.icu_77::UnicodeString" = type { %"class.icu_77::Replaceable", %"union.icu_77::UnicodeString::StackBufferOrFields" }
%"class.icu_77::Replaceable" = type { %"class.icu_77::UObject" }
%"class.icu_77::UObject" = type { ptr }
%"union.icu_77::UnicodeString::StackBufferOrFields" = type { %struct.anon.4, [32 x i8] }
%struct.anon.4 = type { i16, i32, i32, ptr }
%"class.icu_77::SimpleFormatter" = type { [8 x i8], %"class.icu_77::UnicodeString" }
%struct.anon.3 = type { i16, [27 x i16] }
%"class.icu_77::(anonymous namespace)::ContextualHandler" = type { %"class.icu_77::(anonymous namespace)::PatternHandler", ptr, %"class.icu_77::SimpleFormatter", %"class.icu_77::SimpleFormatter" }
%"class.icu_77::(anonymous namespace)::PatternHandler" = type { %"class.icu_77::UObject", %"class.icu_77::SimpleFormatter", %"class.icu_77::SimpleFormatter" }

@_ZTVN6icu_777UObjectE = available_externally unnamed_addr constant { [5 x ptr] } { [5 x ptr] [ptr null, ptr @_ZTIN6icu_777UObjectE, ptr @_ZN6icu_777UObjectD1Ev, ptr @_ZN6icu_777UObjectD0Ev, ptr @_ZNK6icu_777UObject17getDynamicClassIDEv] }, align 8

; Function Attrs: inlinehint mustprogress nounwind uwtable
define linkonce_odr void @_ZN6icu_7711ReplaceableC2Ev(ptr noundef nonnull align 8 dereferenceable(8) %0) unnamed_addr #2 comdat align 2 {
  %2 = alloca ptr, align 8
  store ptr %0, ptr %2, align 8, !tbaa !109
  %3 = load ptr, ptr %2, align 8
  call void @_ZN6icu_777UObjectC2Ev(ptr noundef nonnull align 8 dereferenceable(8) %3) #12
  store ptr getelementptr inbounds inrange(-16, 88) ({ [13 x ptr] }, ptr @_ZTVN6icu_7711ReplaceableE, i32 0, i32 0, i32 2), ptr %3, align 8, !tbaa !27
  ret void
}

; Function Attrs: inlinehint mustprogress uwtable
define linkonce_odr void @_ZN6icu_7713UnicodeStringC2Ev(ptr noundef nonnull align 8 dereferenceable(64) %0) unnamed_addr #3 comdat align 2 {
  %2 = alloca ptr, align 8
  store ptr %0, ptr %2, align 8, !tbaa !72
  %3 = load ptr, ptr %2, align 8
  call void @_ZN6icu_7711ReplaceableC2Ev(ptr noundef nonnull align 8 dereferenceable(8) %3)
  store ptr getelementptr inbounds inrange(-16, 88) ({ [13 x ptr] }, ptr @_ZTVN6icu_7713UnicodeStringE, i32 0, i32 0, i32 2), ptr %3, align 8, !tbaa !27
  %4 = getelementptr inbounds nuw %"class.icu_77::UnicodeString", ptr %3, i32 0, i32 1
  %5 = getelementptr inbounds nuw %struct.anon.3, ptr %4, i32 0, i32 0
  store i16 2, ptr %5, align 8, !tbaa !65
  ret void
}

; Function Attrs: inlinehint mustprogress nounwind uwtable
define linkonce_odr void @_ZN6icu_777UObjectC2Ev(ptr noundef nonnull align 8 dereferenceable(8) %0) unnamed_addr #2 comdat align 2 {
  %2 = alloca ptr, align 8
  store ptr %0, ptr %2, align 8, !tbaa !46
  %3 = load ptr, ptr %2, align 8
  store ptr getelementptr inbounds inrange(-16, 24) ({ [5 x ptr] }, ptr @_ZTVN6icu_777UObjectE, i32 0, i32 0, i32 2), ptr %3, align 8, !tbaa !27
  ret void
}

; Function Attrs: mustprogress uwtable
define linkonce_odr void @_ZN6icu_7715SimpleFormatterC2ERKNS_13UnicodeStringEiiR10UErrorCode(ptr noundef nonnull align 8 dereferenceable(72) %0, ptr noundef nonnull align 8 dereferenceable(64) %1, i32 noundef %2, i32 noundef %3, ptr noundef nonnull align 4 dereferenceable(4) %4) unnamed_addr #1 comdat align 2 personality ptr @__gxx_personality_v0 {
  %6 = alloca ptr, align 8
  %7 = alloca ptr, align 8
  %8 = alloca i32, align 4
  %9 = alloca i32, align 4
  %10 = alloca ptr, align 8
  %11 = alloca ptr, align 8
  %12 = alloca i32, align 4
  store ptr %0, ptr %6, align 8, !tbaa !99
  store ptr %1, ptr %7, align 8, !tbaa !72
  store i32 %2, ptr %8, align 4, !tbaa !14
  store i32 %3, ptr %9, align 4, !tbaa !14
  store ptr %4, ptr %10, align 8, !tbaa !22
  %13 = load ptr, ptr %6, align 8
  %14 = getelementptr inbounds nuw %"class.icu_77::SimpleFormatter", ptr %13, i32 0, i32 1
  call void @_ZN6icu_7713UnicodeStringC2Ev(ptr noundef nonnull align 8 dereferenceable(64) %14)
  %15 = load ptr, ptr %7, align 8, !tbaa !72
  %16 = load i32, ptr %8, align 4, !tbaa !14
  %17 = load i32, ptr %9, align 4, !tbaa !14
  %18 = load ptr, ptr %10, align 8, !tbaa !22
  %19 = invoke noundef signext i8 @_ZN6icu_7715SimpleFormatter27applyPatternMinMaxArgumentsERKNS_13UnicodeStringEiiR10UErrorCode(ptr noundef nonnull align 8 dereferenceable(72) %13, ptr noundef nonnull align 8 dereferenceable(64) %15, i32 noundef %16, i32 noundef %17, ptr noundef nonnull align 4 dereferenceable(4) %18)
          to label %20 unwind label %21

20:                                               ; preds = %5
  ret void

21:                                               ; preds = %5
  %22 = landingpad { ptr, i32 }
          cleanup
  %23 = extractvalue { ptr, i32 } %22, 0
  store ptr %23, ptr %11, align 8
  %24 = extractvalue { ptr, i32 } %22, 1
  store i32 %24, ptr %12, align 4
  call void @_ZN6icu_7713UnicodeStringD1Ev(ptr noundef nonnull align 8 dereferenceable(64) %14) #12
  br label %25

25:                                               ; preds = %21
  %26 = load ptr, ptr %11, align 8
  %27 = load i32, ptr %12, align 4
  %28 = insertvalue { ptr, i32 } poison, ptr %26, 0
  %29 = insertvalue { ptr, i32 } %28, i32 %27, 1
  resume { ptr, i32 } %29
}

; Function Attrs: mustprogress uwtable
define internal void @_ZN6icu_7712_GLOBAL__N_114PatternHandlerC2ERKNS_13UnicodeStringES4_R10UErrorCode(ptr noundef nonnull align 8 dereferenceable(152) %0, ptr noundef nonnull align 8 dereferenceable(64) %1, ptr noundef nonnull align 8 dereferenceable(64) %2, ptr noundef nonnull align 4 dereferenceable(4) %3) unnamed_addr #1 align 2 personality ptr @__gxx_personality_v0 {
  %5 = alloca ptr, align 8
  %6 = alloca ptr, align 8
  %7 = alloca ptr, align 8
  %8 = alloca ptr, align 8
  %9 = alloca ptr, align 8
  %10 = alloca i32, align 4
  store ptr %0, ptr %5, align 8, !tbaa !113
  store ptr %1, ptr %6, align 8, !tbaa !72
  store ptr %2, ptr %7, align 8, !tbaa !72
  store ptr %3, ptr %8, align 8, !tbaa !22
  %11 = load ptr, ptr %5, align 8
  call void @_ZN6icu_777UObjectC2Ev(ptr noundef nonnull align 8 dereferenceable(8) %11) #12
  store ptr getelementptr inbounds inrange(-16, 48) ({ [8 x ptr] }, ptr @_ZTVN6icu_7712_GLOBAL__N_114PatternHandlerE, i32 0, i32 0, i32 2), ptr %11, align 8, !tbaa !27
  %12 = getelementptr inbounds nuw %"class.icu_77::(anonymous namespace)::PatternHandler", ptr %11, i32 0, i32 1
  %13 = load ptr, ptr %6, align 8, !tbaa !72
  %14 = load ptr, ptr %8, align 8, !tbaa !22
  invoke void @_ZN6icu_7715SimpleFormatterC2ERKNS_13UnicodeStringEiiR10UErrorCode(ptr noundef nonnull align 8 dereferenceable(72) %12, ptr noundef nonnull align 8 dereferenceable(64) %13, i32 noundef 2, i32 noundef 2, ptr noundef nonnull align 4 dereferenceable(4) %14)
          to label %15 unwind label %20

15:                                               ; preds = %4
  %16 = getelementptr inbounds nuw %"class.icu_77::(anonymous namespace)::PatternHandler", ptr %11, i32 0, i32 2
  %17 = load ptr, ptr %7, align 8, !tbaa !72
  %18 = load ptr, ptr %8, align 8, !tbaa !22
  invoke void @_ZN6icu_7715SimpleFormatterC2ERKNS_13UnicodeStringEiiR10UErrorCode(ptr noundef nonnull align 8 dereferenceable(72) %16, ptr noundef nonnull align 8 dereferenceable(64) %17, i32 noundef 2, i32 noundef 2, ptr noundef nonnull align 4 dereferenceable(4) %18)
          to label %19 unwind label %24

19:                                               ; preds = %15
  ret void

20:                                               ; preds = %4
  %21 = landingpad { ptr, i32 }
          cleanup
  %22 = extractvalue { ptr, i32 } %21, 0
  store ptr %22, ptr %9, align 8
  %23 = extractvalue { ptr, i32 } %21, 1
  store i32 %23, ptr %10, align 4
  br label %28

24:                                               ; preds = %15
  %25 = landingpad { ptr, i32 }
          cleanup
  %26 = extractvalue { ptr, i32 } %25, 0
  store ptr %26, ptr %9, align 8
  %27 = extractvalue { ptr, i32 } %25, 1
  store i32 %27, ptr %10, align 4
  call void @_ZN6icu_7715SimpleFormatterD1Ev(ptr noundef nonnull align 8 dereferenceable(72) %12) #12
  br label %28

28:                                               ; preds = %24, %20
  call void @_ZN6icu_777UObjectD2Ev(ptr noundef nonnull align 8 dereferenceable(8) %11) #12
  br label %29

29:                                               ; preds = %28
  %30 = load ptr, ptr %9, align 8
  %31 = load i32, ptr %10, align 4
  %32 = insertvalue { ptr, i32 } poison, ptr %30, 0
  %33 = insertvalue { ptr, i32 } %32, i32 %31, 1
  resume { ptr, i32 } %33
}

; Function Attrs: mustprogress uwtable
define internal void @_ZN6icu_7712_GLOBAL__N_117ContextualHandlerC2EPFbRKNS_13UnicodeStringEES4_S4_S4_S4_R10UErrorCode(ptr noundef nonnull align 8 dereferenceable(304) %0, ptr noundef %1, ptr noundef nonnull align 8 dereferenceable(64) %2, ptr noundef nonnull align 8 dereferenceable(64) %3, ptr noundef nonnull align 8 dereferenceable(64) %4, ptr noundef nonnull align 8 dereferenceable(64) %5, ptr noundef nonnull align 4 dereferenceable(4) %6) unnamed_addr #1 align 2 personality ptr @__gxx_personality_v0 {
  %8 = alloca ptr, align 8
  %9 = alloca ptr, align 8
  %10 = alloca ptr, align 8
  %11 = alloca ptr, align 8
  %12 = alloca ptr, align 8
  %13 = alloca ptr, align 8
  %14 = alloca ptr, align 8
  %15 = alloca ptr, align 8
  %16 = alloca i32, align 4
  store ptr %0, ptr %8, align 8, !tbaa !132
  store ptr %1, ptr %9, align 8, !tbaa !22
  store ptr %2, ptr %10, align 8, !tbaa !72
  store ptr %3, ptr %11, align 8, !tbaa !72
  store ptr %4, ptr %12, align 8, !tbaa !72
  store ptr %5, ptr %13, align 8, !tbaa !72
  store ptr %6, ptr %14, align 8, !tbaa !22
  %17 = load ptr, ptr %8, align 8
  %18 = load ptr, ptr %11, align 8, !tbaa !72
  %19 = load ptr, ptr %13, align 8, !tbaa !72
  %20 = load ptr, ptr %14, align 8, !tbaa !22
  call void @_ZN6icu_7712_GLOBAL__N_114PatternHandlerC2ERKNS_13UnicodeStringES4_R10UErrorCode(ptr noundef nonnull align 8 dereferenceable(152) %17, ptr noundef nonnull align 8 dereferenceable(64) %18, ptr noundef nonnull align 8 dereferenceable(64) %19, ptr noundef nonnull align 4 dereferenceable(4) %20)
  store ptr getelementptr inbounds inrange(-16, 48) ({ [8 x ptr] }, ptr @_ZTVN6icu_7712_GLOBAL__N_117ContextualHandlerE, i32 0, i32 0, i32 2), ptr %17, align 8, !tbaa !27
  %21 = getelementptr inbounds nuw %"class.icu_77::(anonymous namespace)::ContextualHandler", ptr %17, i32 0, i32 1
  %22 = load ptr, ptr %9, align 8, !tbaa !22
  store ptr %22, ptr %21, align 8, !tbaa !134
  %23 = getelementptr inbounds nuw %"class.icu_77::(anonymous namespace)::ContextualHandler", ptr %17, i32 0, i32 2
  %24 = load ptr, ptr %10, align 8, !tbaa !72
  %25 = load ptr, ptr %14, align 8, !tbaa !22
  invoke void @_ZN6icu_7715SimpleFormatterC2ERKNS_13UnicodeStringEiiR10UErrorCode(ptr noundef nonnull align 8 dereferenceable(72) %23, ptr noundef nonnull align 8 dereferenceable(64) %24, i32 noundef 2, i32 noundef 2, ptr noundef nonnull align 4 dereferenceable(4) %25)
          to label %26 unwind label %31

26:                                               ; preds = %7
  %27 = getelementptr inbounds nuw %"class.icu_77::(anonymous namespace)::ContextualHandler", ptr %17, i32 0, i32 3
  %28 = load ptr, ptr %12, align 8, !tbaa !72
  %29 = load ptr, ptr %14, align 8, !tbaa !22
  invoke void @_ZN6icu_7715SimpleFormatterC2ERKNS_13UnicodeStringEiiR10UErrorCode(ptr noundef nonnull align 8 dereferenceable(72) %27, ptr noundef nonnull align 8 dereferenceable(64) %28, i32 noundef 2, i32 noundef 2, ptr noundef nonnull align 4 dereferenceable(4) %29)
          to label %30 unwind label %35

30:                                               ; preds = %26
  ret void

31:                                               ; preds = %7
  %32 = landingpad { ptr, i32 }
          cleanup
  %33 = extractvalue { ptr, i32 } %32, 0
  store ptr %33, ptr %15, align 8
  %34 = extractvalue { ptr, i32 } %32, 1
  store i32 %34, ptr %16, align 4
  br label %39

35:                                               ; preds = %26
  %36 = landingpad { ptr, i32 }
          cleanup
  %37 = extractvalue { ptr, i32 } %36, 0
  store ptr %37, ptr %15, align 8
  %38 = extractvalue { ptr, i32 } %36, 1
  store i32 %38, ptr %16, align 4
  call void @_ZN6icu_7715SimpleFormatterD1Ev(ptr noundef nonnull align 8 dereferenceable(72) %23) #12
  br label %39

39:                                               ; preds = %35, %31
  call void @_ZN6icu_7712_GLOBAL__N_114PatternHandlerD2Ev(ptr noundef nonnull align 8 dereferenceable(152) %17) #12
  br label %40

40:                                               ; preds = %39
  %41 = load ptr, ptr %15, align 8
  %42 = load i32, ptr %16, align 4
  %43 = insertvalue { ptr, i32 } poison, ptr %41, 0
  %44 = insertvalue { ptr, i32 } %43, i32 %42, 1
  resume { ptr, i32 } %44
}