; Function Attrs: mustprogress uwtable
define internal fastcc void @_ZN6icu_7712_GLOBAL__N_117ContextualHandlerC2EPFbRKNS_13UnicodeStringEES4_S4_S4_S4_R10UErrorCode(ptr noundef nonnull align 8 dereferenceable(304) initializes((0, 8), (16, 26)) %0, ptr noundef %1, ptr noundef nonnull align 8 dereferenceable(64) %2, ptr noundef nonnull align 8 dereferenceable(64) %3, ptr noundef nonnull align 8 dereferenceable(64) %4, ptr noundef nonnull align 8 dereferenceable(64) %5, ptr noundef nonnull align 4 dereferenceable(4) %6) unnamed_addr #1 align 2 personality ptr @__gxx_personality_v0 {
  store ptr getelementptr inbounds nuw inrange(-16, 48) (i8, ptr @_ZTVN6icu_7712_GLOBAL__N_114PatternHandlerE, i64 16), ptr %0, align 8, !tbaa !15
  %8 = getelementptr inbounds nuw i8, ptr %0, i64 8
  %9 = getelementptr inbounds nuw i8, ptr %0, i64 16
  store ptr getelementptr inbounds nuw inrange(-16, 88) (i8, ptr @_ZTVN6icu_7713UnicodeStringE, i64 16), ptr %9, align 8, !tbaa !15
  %10 = getelementptr inbounds nuw i8, ptr %0, i64 24
  store i16 2, ptr %10, align 8, !tbaa !25
  %11 = invoke noundef signext i8 @_ZN6icu_7715SimpleFormatter27applyPatternMinMaxArgumentsERKNS_13UnicodeStringEiiR10UErrorCode(ptr noundef nonnull align 8 dereferenceable(72) %8, ptr noundef nonnull align 8 dereferenceable(64) %3, i32 noundef 2, i32 noundef 2, ptr noundef nonnull align 4 dereferenceable(4) %6)
          to label %_ZN6icu_7715SimpleFormatterC2ERKNS_13UnicodeStringEiiR10UErrorCode.exit.i unwind label %12

12:                                               ; preds = %7
  %13 = landingpad { ptr, i32 }
          cleanup
  tail call void @_ZN6icu_7713UnicodeStringD1Ev(ptr noundef nonnull align 8 dereferenceable(64) %9) #19
  br label %.body.i

_ZN6icu_7715SimpleFormatterC2ERKNS_13UnicodeStringEiiR10UErrorCode.exit.i: ; preds = %7
  %14 = getelementptr inbounds nuw i8, ptr %0, i64 80
  %15 = getelementptr inbounds nuw i8, ptr %0, i64 88
  store ptr getelementptr inbounds nuw inrange(-16, 88) (i8, ptr @_ZTVN6icu_7713UnicodeStringE, i64 16), ptr %15, align 8, !tbaa !15
  %16 = getelementptr inbounds nuw i8, ptr %0, i64 96
  store i16 2, ptr %16, align 8, !tbaa !25
  %17 = invoke noundef signext i8 @_ZN6icu_7715SimpleFormatter27applyPatternMinMaxArgumentsERKNS_13UnicodeStringEiiR10UErrorCode(ptr noundef nonnull align 8 dereferenceable(72) %14, ptr noundef nonnull align 8 dereferenceable(64) %5, i32 noundef 2, i32 noundef 2, ptr noundef nonnull align 4 dereferenceable(4) %6)
          to label %_ZN6icu_7712_GLOBAL__N_114PatternHandlerC2ERKNS_13UnicodeStringES4_R10UErrorCode.exit unwind label %.body8.i

.body8.i:                                         ; preds = %_ZN6icu_7715SimpleFormatterC2ERKNS_13UnicodeStringEiiR10UErrorCode.exit.i
  %18 = landingpad { ptr, i32 }
          cleanup
  tail call void @_ZN6icu_7713UnicodeStringD1Ev(ptr noundef nonnull align 8 dereferenceable(64) %15) #19
  tail call void @_ZN6icu_7715SimpleFormatterD1Ev(ptr noundef nonnull align 8 dereferenceable(72) %8) #19
  br label %.body.i

common.resume:                                    ; preds = %.body, %.body.i
  %common.resume.op = phi { ptr, i32 } [ %.pn.i, %.body.i ], [ %.pn, %.body ]
  resume { ptr, i32 } %common.resume.op

.body.i:                                          ; preds = %.body8.i, %12
  %.pn.i = phi { ptr, i32 } [ %18, %.body8.i ], [ %13, %12 ]
  tail call void @_ZN6icu_777UObjectD2Ev(ptr noundef nonnull align 8 dereferenceable(152) %0) #19
  br label %common.resume

_ZN6icu_7712_GLOBAL__N_114PatternHandlerC2ERKNS_13UnicodeStringES4_R10UErrorCode.exit: ; preds = %_ZN6icu_7715SimpleFormatterC2ERKNS_13UnicodeStringEiiR10UErrorCode.exit.i
  store ptr getelementptr inbounds nuw inrange(-16, 48) (i8, ptr @_ZTVN6icu_7712_GLOBAL__N_117ContextualHandlerE, i64 16), ptr %0, align 8, !tbaa !15
  %19 = getelementptr inbounds nuw i8, ptr %0, i64 152
  store ptr %1, ptr %19, align 8, !tbaa !82
  %20 = getelementptr inbounds nuw i8, ptr %0, i64 160
  %21 = getelementptr inbounds nuw i8, ptr %0, i64 168
  store ptr getelementptr inbounds nuw inrange(-16, 88) (i8, ptr @_ZTVN6icu_7713UnicodeStringE, i64 16), ptr %21, align 8, !tbaa !15
  %22 = getelementptr inbounds nuw i8, ptr %0, i64 176
  store i16 2, ptr %22, align 8, !tbaa !25
  %23 = invoke noundef signext i8 @_ZN6icu_7715SimpleFormatter27applyPatternMinMaxArgumentsERKNS_13UnicodeStringEiiR10UErrorCode(ptr noundef nonnull align 8 dereferenceable(72) %20, ptr noundef nonnull align 8 dereferenceable(64) %2, i32 noundef 2, i32 noundef 2, ptr noundef nonnull align 4 dereferenceable(4) %6)
          to label %_ZN6icu_7715SimpleFormatterC2ERKNS_13UnicodeStringEiiR10UErrorCode.exit unwind label %24

24:                                               ; preds = %_ZN6icu_7712_GLOBAL__N_114PatternHandlerC2ERKNS_13UnicodeStringES4_R10UErrorCode.exit
  %25 = landingpad { ptr, i32 }
          cleanup
  tail call void @_ZN6icu_7713UnicodeStringD1Ev(ptr noundef nonnull align 8 dereferenceable(64) %21) #19
  br label %.body

_ZN6icu_7715SimpleFormatterC2ERKNS_13UnicodeStringEiiR10UErrorCode.exit: ; preds = %_ZN6icu_7712_GLOBAL__N_114PatternHandlerC2ERKNS_13UnicodeStringES4_R10UErrorCode.exit
  %26 = getelementptr inbounds nuw i8, ptr %0, i64 232
  %27 = getelementptr inbounds nuw i8, ptr %0, i64 240
  store ptr getelementptr inbounds nuw inrange(-16, 88) (i8, ptr @_ZTVN6icu_7713UnicodeStringE, i64 16), ptr %27, align 8, !tbaa !15
  %28 = getelementptr inbounds nuw i8, ptr %0, i64 248
  store i16 2, ptr %28, align 8, !tbaa !25
  %29 = invoke noundef signext i8 @_ZN6icu_7715SimpleFormatter27applyPatternMinMaxArgumentsERKNS_13UnicodeStringEiiR10UErrorCode(ptr noundef nonnull align 8 dereferenceable(72) %26, ptr noundef nonnull align 8 dereferenceable(64) %4, i32 noundef 2, i32 noundef 2, ptr noundef nonnull align 4 dereferenceable(4) %6)
          to label %_ZN6icu_7715SimpleFormatterC2ERKNS_13UnicodeStringEiiR10UErrorCode.exit14 unwind label %.body12

.body12:                                          ; preds = %_ZN6icu_7715SimpleFormatterC2ERKNS_13UnicodeStringEiiR10UErrorCode.exit
  %30 = landingpad { ptr, i32 }
          cleanup
  tail call void @_ZN6icu_7713UnicodeStringD1Ev(ptr noundef nonnull align 8 dereferenceable(64) %27) #19
  tail call void @_ZN6icu_7715SimpleFormatterD1Ev(ptr noundef nonnull align 8 dereferenceable(72) %20) #19
  br label %.body

_ZN6icu_7715SimpleFormatterC2ERKNS_13UnicodeStringEiiR10UErrorCode.exit14: ; preds = %_ZN6icu_7715SimpleFormatterC2ERKNS_13UnicodeStringEiiR10UErrorCode.exit
  ret void

.body:                                            ; preds = %24, %.body12
  %.pn = phi { ptr, i32 } [ %30, %.body12 ], [ %25, %24 ]
  tail call void @_ZN6icu_7712_GLOBAL__N_114PatternHandlerD2Ev(ptr noundef nonnull align 8 dereferenceable(152) %0) #19
  br label %common.resume
}